target datalayout = "e-m:e-p270:32:32-p271:32:32-p272:64:64-i64:64-i128:128-f80:128-n8:16:32:64-S128"
target triple = "x86_64-pc-linux-gnu"

%class.FormatBuffer = type { %class.FormatBufferBase, [256 x i8] }
%class.FormatBufferBase = type { ptr }
%class.NativeCallStack = type { [4 x ptr] }
%class.ThreadCritical = type { i8 }

@.str.20 = private unnamed_addr constant [61 x i8] c"Error in mapping Java heap at the given filesystem directory\00", align 1
@_ZN10MemTracker15_tracking_levelE = external global i32, align 4

; Function Attrs: mustprogress nounwind uwtable
define linkonce_odr hidden noundef i64 @_Z10align_downImmTnNSt9enable_ifIXcvbsr3std11is_integralIT_EE5valueEiE4typeELi0EES1_S1_T0_(i64 noundef %0, i64 noundef %1) #1 comdat {
  %3 = alloca i64, align 8
  %4 = alloca i64, align 8
  %5 = alloca i64, align 8
  store i64 %0, ptr %3, align 8
  store i64 %1, ptr %4, align 8
  %6 = load i64, ptr %3, align 8
  %7 = load i64, ptr %4, align 8
  %8 = call noundef i64 @_ZL14alignment_maskImTnNSt9enable_ifIXcvbsr3std11is_integralIT_EE5valueEiE4typeELi0EES1_S1_(i64 noundef %7)
  %9 = xor i64 %8, -1
  %10 = and i64 %6, %9
  store i64 %10, ptr %5, align 8
  %11 = load i64, ptr %5, align 8
  ret i64 %11
}

; Function Attrs: mustprogress nounwind uwtable
define linkonce_odr hidden noundef i64 @_Z12checked_castImmET_T0_(i64 noundef %0) #1 comdat {
  %2 = alloca i64, align 8
  %3 = alloca i64, align 8
  store i64 %0, ptr %2, align 8
  %4 = load i64, ptr %2, align 8
  store i64 %4, ptr %3, align 8
  %5 = load i64, ptr %3, align 8
  ret i64 %5
}

; Function Attrs: mustprogress nounwind uwtable
define internal noundef i64 @_ZL14alignment_maskImTnNSt9enable_ifIXcvbsr3std11is_integralIT_EE5valueEiE4typeELi0EES1_S1_(i64 noundef %0) #1 {
  %2 = alloca i64, align 8
  store i64 %0, ptr %2, align 8
  %3 = load i64, ptr %2, align 8
  %4 = sub i64 %3, 1
  ret i64 %4
}

; Function Attrs: mustprogress nounwind uwtable
define linkonce_odr hidden noundef i64 @_Z8align_upImmTnNSt9enable_ifIXcvbsr3std11is_integralIT_EE5valueEiE4typeELi0EES1_S1_T0_(i64 noundef %0, i64 noundef %1) #1 comdat {
  %3 = alloca i64, align 8
  %4 = alloca i64, align 8
  %5 = alloca i64, align 8
  store i64 %0, ptr %3, align 8
  store i64 %1, ptr %4, align 8
  %6 = load i64, ptr %3, align 8
  %7 = load i64, ptr %4, align 8
  %8 = call noundef i64 @_ZL14alignment_maskImTnNSt9enable_ifIXcvbsr3std11is_integralIT_EE5valueEiE4typeELi0EES1_S1_(i64 noundef %7)
  %9 = add i64 %6, %8
  %10 = call noundef i64 @_Z12checked_castImmET_T0_(i64 noundef %9)
  store i64 %10, ptr %5, align 8
  %11 = load i64, ptr %5, align 8
  %12 = load i64, ptr %4, align 8
  %13 = call noundef i64 @_Z10align_downImmTnNSt9enable_ifIXcvbsr3std11is_integralIT_EE5valueEiE4typeELi0EES1_S1_T0_(i64 noundef %11, i64 noundef %12)
  ret i64 %13
}

; Function Attrs: mustprogress nounwind uwtable
define linkonce_odr hidden noundef zeroext i1 @_ZN10MemTracker7enabledEv() #1 comdat align 2 {
  %1 = load i32, ptr @_ZN10MemTracker15_tracking_levelE, align 4
  %2 = icmp sgt i32 %1, 1
  ret i1 %2
}

; Function Attrs: mustprogress nounwind uwtable
define linkonce_odr hidden void @_ZN10MemTracker16assert_post_initEv() #1 comdat align 2 {
  ret void
}

; Function Attrs: mustprogress nounwind uwtable
define linkonce_odr hidden noundef ptr @_Z8align_upIcmEPT_S1_T0_(ptr noundef %0, i64 noundef %1) #1 comdat {
  %3 = alloca ptr, align 8
  %4 = alloca i64, align 8
  store ptr %0, ptr %3, align 8
  store i64 %1, ptr %4, align 8
  %5 = load ptr, ptr %3, align 8
  %6 = ptrtoint ptr %5 to i64
  %7 = load i64, ptr %4, align 8
  %8 = call noundef i64 @_Z8align_upImmTnNSt9enable_ifIXcvbsr3std11is_integralIT_EE5valueEiE4typeELi0EES1_S1_T0_(i64 noundef %6, i64 noundef %7)
  %9 = inttoptr i64 %8 to ptr
  ret ptr %9
}

; Function Attrs: mustprogress nounwind uwtable
define linkonce_odr hidden void @_ZN10MemTracker29record_virtual_memory_reserveEPvmRK15NativeCallStack8MEMFLAGS(ptr noundef %0, i64 noundef %1, ptr noundef nonnull align 8 dereferenceable(32) %2, i8 noundef zeroext %3) #1 comdat align 2 {
  %5 = alloca ptr, align 8
  %6 = alloca i64, align 8
  %7 = alloca ptr, align 8
  %8 = alloca i8, align 1
  %9 = alloca %class.ThreadCritical, align 1
  store ptr %0, ptr %5, align 8
  store i64 %1, ptr %6, align 8
  store ptr %2, ptr %7, align 8
  store i8 %3, ptr %8, align 1
  call void @_ZN10MemTracker16assert_post_initEv()
  %10 = call noundef zeroext i1 @_ZN10MemTracker7enabledEv()
  br i1 %10, label %12, label %11

11:                                               ; preds = %4
  br label %21

12:                                               ; preds = %4
  %13 = load ptr, ptr %5, align 8
  %14 = icmp ne ptr %13, null
  br i1 %14, label %15, label %21

15:                                               ; preds = %12
  call void @_ZN14ThreadCriticalC1Ev(ptr noundef nonnull align 1 dereferenceable(1) %9)
  %16 = load ptr, ptr %5, align 8
  %17 = load i64, ptr %6, align 8
  %18 = load ptr, ptr %7, align 8
  %19 = load i8, ptr %8, align 1
  %20 = call noundef zeroext i1 @_ZN20VirtualMemoryTracker19add_reserved_regionEPhmRK15NativeCallStack8MEMFLAGS(ptr noundef %16, i64 noundef %17, ptr noundef nonnull align 8 dereferenceable(32) %18, i8 noundef zeroext %19)
  call void @_ZN14ThreadCriticalD1Ev(ptr noundef nonnull align 1 dereferenceable(1) %9) #7
  br label %21

21:                                               ; preds = %15, %12, %11
  ret void
}

; Function Attrs: mustprogress nounwind uwtable
define linkonce_odr hidden void @_ZN10MemTracker28record_virtual_memory_commitEPvmRK15NativeCallStack(ptr noundef %0, i64 noundef %1, ptr noundef nonnull align 8 dereferenceable(32) %2) #1 comdat align 2 {
  %4 = alloca ptr, align 8
  %5 = alloca i64, align 8
  %6 = alloca ptr, align 8
  %7 = alloca %class.ThreadCritical, align 1
  store ptr %0, ptr %4, align 8
  store i64 %1, ptr %5, align 8
  store ptr %2, ptr %6, align 8
  call void @_ZN10MemTracker16assert_post_initEv()
  %8 = call noundef zeroext i1 @_ZN10MemTracker7enabledEv()
  br i1 %8, label %10, label %9

9:                                                ; preds = %3
  br label %18

10:                                               ; preds = %3
  %11 = load ptr, ptr %4, align 8
  %12 = icmp ne ptr %11, null
  br i1 %12, label %13, label %18

13:                                               ; preds = %10
  call void @_ZN14ThreadCriticalC1Ev(ptr noundef nonnull align 1 dereferenceable(1) %7)
  %14 = load ptr, ptr %4, align 8
  %15 = load i64, ptr %5, align 8
  %16 = load ptr, ptr %6, align 8
  %17 = call noundef zeroext i1 @_ZN20VirtualMemoryTracker20add_committed_regionEPhmRK15NativeCallStack(ptr noundef %14, i64 noundef %15, ptr noundef nonnull align 8 dereferenceable(32) %16)
  call void @_ZN14ThreadCriticalD1Ev(ptr noundef nonnull align 1 dereferenceable(1) %7) #7
  br label %18

18:                                               ; preds = %13, %10, %9
  ret void
}

; Function Attrs: mustprogress nounwind uwtable
define linkonce_odr hidden void @_ZN15NativeCallStackC2ENS_10FakeMarkerE(ptr noundef nonnull align 8 dereferenceable(32) %0, i32 noundef %1) unnamed_addr #1 comdat align 2 {
  %3 = alloca ptr, align 8
  %4 = alloca i32, align 4
  store ptr %0, ptr %3, align 8
  store i32 %1, ptr %4, align 4
  ret void
}

; Function Attrs: mustprogress nounwind uwtable
define linkonce_odr hidden noundef i32 @_ZN10MemTracker14tracking_levelEv() #1 comdat align 2 {
  %1 = load i32, ptr @_ZN10MemTracker15_tracking_levelE, align 4
  ret i32 %1
}

; Function Attrs: mustprogress nounwind uwtable
define linkonce_odr hidden noundef ptr @_ZNK16FormatBufferBasecvPKcEv(ptr noundef nonnull align 8 dereferenceable(8) %0) #1 comdat align 2 {
  %2 = alloca ptr, align 8
  store ptr %0, ptr %2, align 8
  %3 = load ptr, ptr %2, align 8
  %4 = getelementptr inbounds %class.FormatBufferBase, ptr %3, i32 0, i32 0
  %5 = load ptr, ptr %4, align 8
  ret ptr %5
}

; Function Attrs: mustprogress nounwind uwtable
define hidden noundef ptr @_ZN2os42replace_existing_mapping_with_file_mappingEPcmi(ptr noundef %0, i64 noundef %1, i32 noundef %2) #1 align 2 {
  %4 = alloca ptr, align 8
  %5 = alloca i64, align 8
  %6 = alloca i32, align 4
  store ptr %0, ptr %4, align 8
  store i64 %1, ptr %5, align 8
  store i32 %2, ptr %6, align 4
  %7 = load ptr, ptr %4, align 8
  %8 = load i64, ptr %5, align 8
  %9 = load i32, ptr %6, align 4
  %10 = call noundef ptr @_ZN2os18map_memory_to_fileEPcmi(ptr noundef %7, i64 noundef %8, i32 noundef %9)
  ret ptr %10
}

; Function Attrs: mustprogress nounwind uwtable
define internal noundef ptr @_ZL17chop_extra_memorymmPcm(i64 noundef %0, i64 noundef %1, ptr noundef %2, i64 noundef %3) #1 {
  %5 = alloca i64, align 8
  %6 = alloca i64, align 8
  %7 = alloca ptr, align 8
  %8 = alloca i64, align 8
  %9 = alloca ptr, align 8
  %10 = alloca i64, align 8
  %11 = alloca i64, align 8
  store i64 %0, ptr %5, align 8
  store i64 %1, ptr %6, align 8
  store ptr %2, ptr %7, align 8
  store i64 %3, ptr %8, align 8
  %12 = load ptr, ptr %7, align 8
  %13 = load i64, ptr %6, align 8
  %14 = call noundef ptr @_Z8align_upIcmEPT_S1_T0_(ptr noundef %12, i64 noundef %13)
  store ptr %14, ptr %9, align 8
  %15 = load ptr, ptr %9, align 8
  %16 = load ptr, ptr %7, align 8
  %17 = ptrtoint ptr %15 to i64
  %18 = ptrtoint ptr %16 to i64
  %19 = sub i64 %17, %18
  store i64 %19, ptr %10, align 8
  %20 = load ptr, ptr %7, align 8
  %21 = load i64, ptr %8, align 8
  %22 = getelementptr inbounds i8, ptr %20, i64 %21
  %23 = load ptr, ptr %9, align 8
  %24 = load i64, ptr %5, align 8
  %25 = getelementptr inbounds i8, ptr %23, i64 %24
  %26 = ptrtoint ptr %22 to i64
  %27 = ptrtoint ptr %25 to i64
  %28 = sub i64 %26, %27
  store i64 %28, ptr %11, align 8
  %29 = load i64, ptr %10, align 8
  %30 = icmp ugt i64 %29, 0
  br i1 %30, label %31, label %35

31:                                               ; preds = %4
  %32 = load ptr, ptr %7, align 8
  %33 = load i64, ptr %10, align 8
  %34 = call noundef zeroext i1 @_ZN2os14release_memoryEPcm(ptr noundef %32, i64 noundef %33)
  br label %35

35:                                               ; preds = %31, %4
  %36 = load i64, ptr %11, align 8
  %37 = icmp ugt i64 %36, 0
  br i1 %37, label %38, label %46

38:                                               ; preds = %35
  %39 = load ptr, ptr %7, align 8
  %40 = load i64, ptr %10, align 8
  %41 = getelementptr inbounds i8, ptr %39, i64 %40
  %42 = load i64, ptr %5, align 8
  %43 = getelementptr inbounds i8, ptr %41, i64 %42
  %44 = load i64, ptr %11, align 8
  %45 = call noundef zeroext i1 @_ZN2os14release_memoryEPcm(ptr noundef %43, i64 noundef %44)
  br label %46

46:                                               ; preds = %38, %35
  %47 = load ptr, ptr %9, align 8
  ret ptr %47
}

; Function Attrs: mustprogress nounwind uwtable
define internal noundef ptr @_ZL22reserve_mmapped_memorymPc8MEMFLAGS(i64 noundef %0, ptr noundef %1, i8 noundef zeroext %2) #1 {
  %4 = alloca ptr, align 8
  %5 = alloca i64, align 8
  %6 = alloca ptr, align 8
  %7 = alloca i8, align 1
  %8 = alloca ptr, align 8
  %9 = alloca i32, align 4
  %10 = alloca %class.NativeCallStack, align 8
  store i64 %0, ptr %5, align 8
  store ptr %1, ptr %6, align 8
  store i8 %2, ptr %7, align 1
  store i32 16418, ptr %9, align 4
  %11 = load ptr, ptr %6, align 8
  %12 = icmp ne ptr %11, null
  br i1 %12, label %13, label %16

13:                                               ; preds = %3
  %14 = load i32, ptr %9, align 4
  %15 = or i32 %14, 16
  store i32 %15, ptr %9, align 4
  br label %16

16:                                               ; preds = %13, %3
  %17 = load ptr, ptr %6, align 8
  %18 = load i64, ptr %5, align 8
  %19 = load i32, ptr %9, align 4
  %20 = call ptr @mmap64(ptr noundef %17, i64 noundef %18, i32 noundef 0, i32 noundef %19, i32 noundef -1, i64 noundef 0) #7
  store ptr %20, ptr %8, align 8
  %21 = load ptr, ptr %8, align 8
  %22 = icmp ne ptr %21, inttoptr (i64 -1 to ptr)
  br i1 %22, label %23, label %33

23:                                               ; preds = %16
  %24 = load ptr, ptr %8, align 8
  %25 = load i64, ptr %5, align 8
  %26 = call noundef i32 @_ZN10MemTracker14tracking_levelEv()
  %27 = icmp eq i32 %26, 3
  br i1 %27, label %28, label %29

28:                                               ; preds = %23
  call void @_ZN15NativeCallStackC1Ei(ptr noundef nonnull align 8 dereferenceable(32) %10, i32 noundef 1)
  br label %30

29:                                               ; preds = %23
  call void @_ZN15NativeCallStackC2ENS_10FakeMarkerE(ptr noundef nonnull align 8 dereferenceable(32) %10, i32 noundef 0)
  br label %30

30:                                               ; preds = %29, %28
  %31 = load i8, ptr %7, align 1
  call void @_ZN10MemTracker29record_virtual_memory_reserveEPvmRK15NativeCallStack8MEMFLAGS(ptr noundef %24, i64 noundef %25, ptr noundef nonnull align 8 dereferenceable(32) %10, i8 noundef zeroext %31)
  %32 = load ptr, ptr %8, align 8
  store ptr %32, ptr %4, align 8
  br label %34

33:                                               ; preds = %16
  store ptr null, ptr %4, align 8
  br label %34

34:                                               ; preds = %33, %30
  %35 = load ptr, ptr %4, align 8
  ret ptr %35
}

; Function Attrs: mustprogress nounwind uwtable
define internal noundef i64 @_ZL28calculate_aligned_extra_sizemm(i64 noundef %0, i64 noundef %1) #1 {
  %3 = alloca i64, align 8
  %4 = alloca i64, align 8
  %5 = alloca i64, align 8
  store i64 %0, ptr %3, align 8
  store i64 %1, ptr %4, align 8
  %6 = load i64, ptr %3, align 8
  %7 = load i64, ptr %4, align 8
  %8 = add i64 %6, %7
  store i64 %8, ptr %5, align 8
  %9 = load i64, ptr %5, align 8
  ret i64 %9
}

; Function Attrs: mustprogress nounwind uwtable
define hidden noundef ptr @_ZN2os26map_memory_to_file_alignedEmmi8MEMFLAGS(i64 noundef %0, i64 noundef %1, i32 noundef %2, i8 noundef zeroext %3) #1 align 2 {
  %5 = alloca ptr, align 8
  %6 = alloca i64, align 8
  %7 = alloca i64, align 8
  %8 = alloca i32, align 4
  %9 = alloca i8, align 1
  %10 = alloca i64, align 8
  %11 = alloca ptr, align 8
  %12 = alloca ptr, align 8
  %13 = alloca %class.FormatBuffer, align 8
  %14 = alloca %class.NativeCallStack, align 8
  store i64 %0, ptr %6, align 8
  store i64 %1, ptr %7, align 8
  store i32 %2, ptr %8, align 4
  store i8 %3, ptr %9, align 1
  %15 = load i64, ptr %6, align 8
  %16 = load i64, ptr %7, align 8
  %17 = call noundef i64 @_ZL28calculate_aligned_extra_sizemm(i64 noundef %15, i64 noundef %16)
  store i64 %17, ptr %10, align 8
  %18 = load i64, ptr %10, align 8
  %19 = load i8, ptr %9, align 1
  %20 = call noundef ptr @_ZL22reserve_mmapped_memorymPc8MEMFLAGS(i64 noundef %18, ptr noundef null, i8 noundef zeroext %19)
  store ptr %20, ptr %11, align 8
  %21 = load ptr, ptr %11, align 8
  %22 = icmp eq ptr %21, null
  br i1 %22, label %23, label %24

23:                                               ; preds = %4
  store ptr null, ptr %5, align 8
  br label %46

24:                                               ; preds = %4
  %25 = load i64, ptr %6, align 8
  %26 = load i64, ptr %7, align 8
  %27 = load ptr, ptr %11, align 8
  %28 = load i64, ptr %10, align 8
  %29 = call noundef ptr @_ZL17chop_extra_memorymmPcm(i64 noundef %25, i64 noundef %26, ptr noundef %27, i64 noundef %28)
  store ptr %29, ptr %12, align 8
  %30 = load ptr, ptr %12, align 8
  %31 = load i64, ptr %6, align 8
  %32 = load i32, ptr %8, align 4
  %33 = call noundef ptr @_ZN2os42replace_existing_mapping_with_file_mappingEPcmi(ptr noundef %30, i64 noundef %31, i32 noundef %32)
  %34 = icmp eq ptr %33, null
  br i1 %34, label %35, label %37

35:                                               ; preds = %24
  call void (ptr, ptr, ...) @_ZN12FormatBufferILm256EEC2EPKcz(ptr noundef nonnull align 8 dereferenceable(264) %13, ptr noundef @.str.20)
  %36 = call noundef ptr @_ZNK16FormatBufferBasecvPKcEv(ptr noundef nonnull align 8 dereferenceable(8) %13)
  call void @_Z29vm_exit_during_initializationPKcS0_(ptr noundef %36, ptr noundef null)
  br label %37

37:                                               ; preds = %35, %24
  %38 = load ptr, ptr %12, align 8
  %39 = load i64, ptr %6, align 8
  %40 = call noundef i32 @_ZN10MemTracker14tracking_levelEv()
  %41 = icmp eq i32 %40, 3
  br i1 %41, label %42, label %43

42:                                               ; preds = %37
  call void @_ZN15NativeCallStackC1Ei(ptr noundef nonnull align 8 dereferenceable(32) %14, i32 noundef 1)
  br label %44

43:                                               ; preds = %37
  call void @_ZN15NativeCallStackC2ENS_10FakeMarkerE(ptr noundef nonnull align 8 dereferenceable(32) %14, i32 noundef 0)
  br label %44

44:                                               ; preds = %43, %42
  call void @_ZN10MemTracker28record_virtual_memory_commitEPvmRK15NativeCallStack(ptr noundef %38, i64 noundef %39, ptr noundef nonnull align 8 dereferenceable(32) %14)
  %45 = load ptr, ptr %12, align 8
  store ptr %45, ptr %5, align 8
  br label %46

46:                                               ; preds = %44, %23
  %47 = load ptr, ptr %5, align 8
  ret ptr %47
}