; Function Attrs: mustprogress nounwind uwtable
define hidden noundef ptr @_ZN2os26map_memory_to_file_alignedEmmi8MEMFLAGS(i64 noundef %0, i64 noundef %1, i32 noundef %2, i8 noundef zeroext %3) local_unnamed_addr #1 align 2 {
  %5 = alloca %class.ThreadCritical, align 1
  %6 = alloca %class.ThreadCritical, align 1
  %7 = alloca %class.NativeCallStack, align 8
  %8 = alloca %class.FormatBuffer, align 8
  %9 = alloca %class.NativeCallStack, align 8
  %10 = add i64 %1, %0
  call void @llvm.lifetime.start.p0(i64 32, ptr nonnull %7)
  %11 = tail call ptr @mmap64(ptr noundef null, i64 noundef %10, i32 noundef 0, i32 noundef 16418, i32 noundef -1, i64 noundef 0) #25
  %.not.i = icmp eq ptr %11, inttoptr (i64 -1 to ptr)
  br i1 %.not.i, label %_ZL22reserve_mmapped_memorymPc8MEMFLAGS.exit.thread, label %12

_ZL22reserve_mmapped_memorymPc8MEMFLAGS.exit.thread: ; preds = %4
  call void @llvm.lifetime.end.p0(i64 32, ptr nonnull %7)
  br label %56

12:                                               ; preds = %4
  %13 = load i32, ptr @_ZN10MemTracker15_tracking_levelE, align 4
  %14 = icmp eq i32 %13, 3
  br i1 %14, label %15, label %16

15:                                               ; preds = %12
  call void @_ZN15NativeCallStackC1Ei(ptr noundef nonnull align 8 dereferenceable(32) %7, i32 noundef 1) #25
  %.pre.i = load i32, ptr @_ZN10MemTracker15_tracking_levelE, align 4
  br label %16

16:                                               ; preds = %15, %12
  %17 = phi i32 [ %13, %12 ], [ %.pre.i, %15 ]
  call void @llvm.lifetime.start.p0(i64 1, ptr nonnull %6)
  %18 = icmp sgt i32 %17, 1
  %19 = icmp ne ptr %11, null
  %or.cond.i.i = and i1 %19, %18
  br i1 %or.cond.i.i, label %_ZL22reserve_mmapped_memorymPc8MEMFLAGS.exit.thread18, label %_ZL22reserve_mmapped_memorymPc8MEMFLAGS.exit

_ZL22reserve_mmapped_memorymPc8MEMFLAGS.exit.thread18: ; preds = %16
  call void @_ZN14ThreadCriticalC1Ev(ptr noundef nonnull align 1 dereferenceable(1) %6) #25
  %20 = call noundef zeroext i1 @_ZN20VirtualMemoryTracker19add_reserved_regionEPhmRK15NativeCallStack8MEMFLAGS(ptr noundef nonnull %11, i64 noundef %10, ptr noundef nonnull align 8 dereferenceable(32) %7, i8 noundef zeroext %3) #25
  call void @_ZN14ThreadCriticalD1Ev(ptr noundef nonnull align 1 dereferenceable(1) %6) #25
  call void @llvm.lifetime.end.p0(i64 1, ptr nonnull %6)
  call void @llvm.lifetime.end.p0(i64 32, ptr nonnull %7)
  br label %22

_ZL22reserve_mmapped_memorymPc8MEMFLAGS.exit:     ; preds = %16
  call void @llvm.lifetime.end.p0(i64 1, ptr nonnull %6)
  call void @llvm.lifetime.end.p0(i64 32, ptr nonnull %7)
  %21 = icmp eq ptr %11, null
  br i1 %21, label %56, label %22

22:                                               ; preds = %_ZL22reserve_mmapped_memorymPc8MEMFLAGS.exit.thread18, %_ZL22reserve_mmapped_memorymPc8MEMFLAGS.exit
  %23 = ptrtoint ptr %11 to i64
  %24 = add i64 %1, -1
  %25 = add i64 %24, %23
  %26 = sub i64 0, %1
  %27 = and i64 %25, %26
  %28 = inttoptr i64 %27 to ptr
  %29 = sub i64 %27, %23
  %30 = getelementptr inbounds i8, ptr %11, i64 %10
  %31 = getelementptr inbounds i8, ptr %28, i64 %0
  %32 = ptrtoint ptr %30 to i64
  %33 = ptrtoint ptr %31 to i64
  %34 = sub i64 %32, %33
  %.not.i16 = icmp eq ptr %11, %28
  br i1 %.not.i16, label %37, label %35

35:                                               ; preds = %22
  %36 = call noundef zeroext i1 @_ZN2os14release_memoryEPcm(ptr noundef nonnull %11, i64 noundef %29) #25
  br label %37

37:                                               ; preds = %35, %22
  %.not17.i = icmp eq ptr %30, %31
  br i1 %.not17.i, label %_ZL17chop_extra_memorymmPcm.exit, label %38

38:                                               ; preds = %37
  %39 = getelementptr inbounds i8, ptr %11, i64 %29
  %40 = getelementptr inbounds i8, ptr %39, i64 %0
  %41 = call noundef zeroext i1 @_ZN2os14release_memoryEPcm(ptr noundef %40, i64 noundef %34) #25
  br label %_ZL17chop_extra_memorymmPcm.exit

_ZL17chop_extra_memorymmPcm.exit:                 ; preds = %37, %38
  %42 = call noundef ptr @_ZN2os18map_memory_to_fileEPcmi(ptr noundef %28, i64 noundef %0, i32 noundef %2)
  %43 = icmp eq ptr %42, null
  br i1 %43, label %44, label %46

44:                                               ; preds = %_ZL17chop_extra_memorymmPcm.exit
  call void (ptr, ptr, ...) @_ZN12FormatBufferILm256EEC2EPKcz(ptr noundef nonnull align 8 dereferenceable(264) %8, ptr noundef nonnull @.str.20)
  %45 = load ptr, ptr %8, align 8
  call void @_Z29vm_exit_during_initializationPKcS0_(ptr noundef %45, ptr noundef null) #25
  br label %46

46:                                               ; preds = %44, %_ZL17chop_extra_memorymmPcm.exit
  %47 = load i32, ptr @_ZN10MemTracker15_tracking_levelE, align 4
  %48 = icmp eq i32 %47, 3
  br i1 %48, label %49, label %50

49:                                               ; preds = %46
  call void @_ZN15NativeCallStackC1Ei(ptr noundef nonnull align 8 dereferenceable(32) %9, i32 noundef 1) #25
  %.pre = load i32, ptr @_ZN10MemTracker15_tracking_levelE, align 4
  br label %50

50:                                               ; preds = %46, %49
  %51 = phi i32 [ %47, %46 ], [ %.pre, %49 ]
  call void @llvm.lifetime.start.p0(i64 1, ptr nonnull %5)
  %52 = icmp sgt i32 %51, 1
  %53 = icmp ne i64 %27, 0
  %or.cond.i = and i1 %53, %52
  br i1 %or.cond.i, label %54, label %_ZN10MemTracker28record_virtual_memory_commitEPvmRK15NativeCallStack.exit

54:                                               ; preds = %50
  call void @_ZN14ThreadCriticalC1Ev(ptr noundef nonnull align 1 dereferenceable(1) %5) #25
  %55 = call noundef zeroext i1 @_ZN20VirtualMemoryTracker20add_committed_regionEPhmRK15NativeCallStack(ptr noundef nonnull %28, i64 noundef %0, ptr noundef nonnull align 8 dereferenceable(32) %9) #25
  call void @_ZN14ThreadCriticalD1Ev(ptr noundef nonnull align 1 dereferenceable(1) %5) #25
  br label %_ZN10MemTracker28record_virtual_memory_commitEPvmRK15NativeCallStack.exit

_ZN10MemTracker28record_virtual_memory_commitEPvmRK15NativeCallStack.exit: ; preds = %50, %54
  call void @llvm.lifetime.end.p0(i64 1, ptr nonnull %5)
  br label %56

56:                                               ; preds = %_ZL22reserve_mmapped_memorymPc8MEMFLAGS.exit.thread, %_ZL22reserve_mmapped_memorymPc8MEMFLAGS.exit, %_ZN10MemTracker28record_virtual_memory_commitEPvmRK15NativeCallStack.exit
  %.0 = phi ptr [ %28, %_ZN10MemTracker28record_virtual_memory_commitEPvmRK15NativeCallStack.exit ], [ null, %_ZL22reserve_mmapped_memorymPc8MEMFLAGS.exit ], [ null, %_ZL22reserve_mmapped_memorymPc8MEMFLAGS.exit.thread ]
  ret ptr %.0
}